target datalayout = "e-m:e-p270:32:32-p271:32:32-p272:64:64-i64:64-i128:128-f80:128-n8:16:32:64-S128"
target triple = "x86_64-pc-linux-gnu"

%"class.(anonymous namespace)::StmtProfilerWithPointers" = type { %"class.(anonymous namespace)::StmtProfiler.base", ptr }
%"class.(anonymous namespace)::StmtProfiler.base" = type <{ ptr, ptr, i8, i8 }>
%"class.(anonymous namespace)::StmtProfiler" = type <{ ptr, ptr, i8, i8, [6 x i8] }>
%"class.clang::TemplateName" = type { %"class.llvm::PointerUnion" }
%"class.llvm::PointerUnion" = type { %"class.llvm::pointer_union_detail::PointerUnionMembers" }
%"class.llvm::pointer_union_detail::PointerUnionMembers" = type { %"class.llvm::pointer_union_detail::PointerUnionMembers.351" }
%"class.llvm::pointer_union_detail::PointerUnionMembers.351" = type { %"class.llvm::pointer_union_detail::PointerUnionMembers.352" }
%"class.llvm::pointer_union_detail::PointerUnionMembers.352" = type { %"class.llvm::pointer_union_detail::PointerUnionMembers.353" }
%"class.llvm::pointer_union_detail::PointerUnionMembers.353" = type { %"class.llvm::pointer_union_detail::PointerUnionMembers.354" }
%"class.llvm::pointer_union_detail::PointerUnionMembers.354" = type { %"class.llvm::PointerIntPair.355" }
%"class.llvm::PointerIntPair.355" = type { %"struct.llvm::detail::PunnedPointer.356" }
%"struct.llvm::detail::PunnedPointer.356" = type { [8 x i8] }

; Function Attrs: mustprogress nounwind uwtable
define linkonce_odr hidden noundef i64 @_ZNK4llvm6detail13PunnedPointerIPvE5asIntEv(ptr noundef nonnull align 8 dereferenceable(8) %0) #0 comdat align 2 {
  %2 = alloca ptr, align 8
  %3 = alloca i64, align 8
  store ptr %0, ptr %2, align 8
  %4 = load ptr, ptr %2, align 8
  store i64 0, ptr %3, align 8
  %5 = getelementptr inbounds nuw %"struct.llvm::detail::PunnedPointer.356", ptr %4, i32 0, i32 0
  %6 = getelementptr inbounds [8 x i8], ptr %5, i64 0, i64 0
  call void @llvm.memcpy.p0.p0.i64(ptr align 8 %3, ptr align 8 %6, i64 8, i1 false)
  %7 = load i64, ptr %3, align 8
  ret i64 %7
}

; Function Attrs: mustprogress nounwind uwtable
define linkonce_odr hidden void @_ZN4llvm16FoldingSetNodeID10AddIntegerEm(ptr noundef nonnull align 8 dereferenceable(144) %0, i64 noundef %1) #0 comdat align 2 {
  %3 = alloca ptr, align 8
  %4 = alloca i64, align 8
  store ptr %0, ptr %3, align 8
  store i64 %1, ptr %4, align 8
  %5 = load ptr, ptr %3, align 8
  %6 = load i64, ptr %4, align 8
  call void @_ZN4llvm16FoldingSetNodeID10AddIntegerEy(ptr noundef nonnull align 8 dereferenceable(144) %5, i64 noundef %6)
  ret void
}

; Function Attrs: mustprogress nounwind uwtable
define linkonce_odr hidden noundef ptr @_ZNK4llvm14PointerIntPairIPvLj2EiNS_20pointer_union_detail22PointerUnionUIntTraitsIJPN5clang4DeclEPNS4_27UncommonTemplateNameStorageEPNS4_21QualifiedTemplateNameEPNS4_21DependentTemplateNameEEEENS_18PointerIntPairInfoIS1_Lj2ESD_EEE14getOpaqueValueEv(ptr noundef nonnull align 8 dereferenceable(8) %0) #0 comdat align 2 {
  %2 = alloca ptr, align 8
  store ptr %0, ptr %2, align 8
  %3 = load ptr, ptr %2, align 8
  %4 = getelementptr inbounds nuw %"class.llvm::PointerIntPair.355", ptr %3, i32 0, i32 0
  %5 = call noundef i64 @_ZNK4llvm6detail13PunnedPointerIPvE5asIntEv(ptr noundef nonnull align 8 dereferenceable(8) %4)
  %6 = inttoptr i64 %5 to ptr
  ret ptr %6
}

; Function Attrs: mustprogress nounwind uwtable
define linkonce_odr hidden void @_ZN4llvm16FoldingSetNodeID10AddPointerEPKv(ptr noundef nonnull align 8 dereferenceable(144) %0, ptr noundef %1) #0 comdat align 2 {
  %3 = alloca ptr, align 8
  %4 = alloca ptr, align 8
  store ptr %0, ptr %3, align 8
  store ptr %1, ptr %4, align 8
  %5 = load ptr, ptr %3, align 8
  %6 = load ptr, ptr %4, align 8
  %7 = ptrtoint ptr %6 to i64
  call void @_ZN4llvm16FoldingSetNodeID10AddIntegerEm(ptr noundef nonnull align 8 dereferenceable(144) %5, i64 noundef %7)
  ret void
}

; Function Attrs: mustprogress nounwind uwtable
define linkonce_odr hidden noundef ptr @_ZNK4llvm12PointerUnionIJPN5clang4DeclEPNS1_27UncommonTemplateNameStorageEPNS1_21QualifiedTemplateNameEPNS1_21DependentTemplateNameEEE14getOpaqueValueEv(ptr noundef nonnull align 8 dereferenceable(8) %0) #0 comdat align 2 {
  %2 = alloca ptr, align 8
  store ptr %0, ptr %2, align 8
  %3 = load ptr, ptr %2, align 8
  %4 = getelementptr inbounds nuw %"class.llvm::pointer_union_detail::PointerUnionMembers.354", ptr %3, i32 0, i32 0
  %5 = call noundef ptr @_ZNK4llvm14PointerIntPairIPvLj2EiNS_20pointer_union_detail22PointerUnionUIntTraitsIJPN5clang4DeclEPNS4_27UncommonTemplateNameStorageEPNS4_21QualifiedTemplateNameEPNS4_21DependentTemplateNameEEEENS_18PointerIntPairInfoIS1_Lj2ESD_EEE14getOpaqueValueEv(ptr noundef nonnull align 8 dereferenceable(8) %4)
  ret ptr %5
}

; Function Attrs: mustprogress nounwind uwtable
define linkonce_odr hidden void @_ZN5clang12TemplateName7ProfileERN4llvm16FoldingSetNodeIDE(ptr noundef nonnull align 8 dereferenceable(8) %0, ptr noundef nonnull align 8 dereferenceable(144) %1) #0 comdat align 2 {
  %3 = alloca ptr, align 8
  %4 = alloca ptr, align 8
  store ptr %0, ptr %3, align 8
  store ptr %1, ptr %4, align 8
  %5 = load ptr, ptr %3, align 8
  %6 = load ptr, ptr %4, align 8
  %7 = getelementptr inbounds nuw %"class.clang::TemplateName", ptr %5, i32 0, i32 0
  %8 = call noundef ptr @_ZNK4llvm12PointerUnionIJPN5clang4DeclEPNS1_27UncommonTemplateNameStorageEPNS1_21QualifiedTemplateNameEPNS1_21DependentTemplateNameEEE14getOpaqueValueEv(ptr noundef nonnull align 8 dereferenceable(8) %7)
  call void @_ZN4llvm16FoldingSetNodeID10AddPointerEPKv(ptr noundef nonnull align 8 dereferenceable(144) %6, ptr noundef %8)
  ret void
}

; Function Attrs: mustprogress nounwind uwtable
define internal void @_ZN12_GLOBAL__N_124StmtProfilerWithPointers17VisitTemplateNameEN5clang12TemplateNameE(ptr noundef nonnull align 8 dereferenceable(32) %0, i64 %1) unnamed_addr #0 align 2 {
  %3 = alloca %"class.clang::TemplateName", align 8
  %4 = alloca ptr, align 8
  %5 = alloca %"class.clang::TemplateName", align 8
  %6 = getelementptr inbounds nuw %"class.clang::TemplateName", ptr %3, i32 0, i32 0
  %7 = getelementptr inbounds nuw %"class.llvm::PointerUnion", ptr %6, i32 0, i32 0
  %8 = getelementptr inbounds nuw %"class.llvm::pointer_union_detail::PointerUnionMembers", ptr %7, i32 0, i32 0
  %9 = getelementptr inbounds nuw %"class.llvm::pointer_union_detail::PointerUnionMembers.351", ptr %8, i32 0, i32 0
  %10 = getelementptr inbounds nuw %"class.llvm::pointer_union_detail::PointerUnionMembers.352", ptr %9, i32 0, i32 0
  %11 = getelementptr inbounds nuw %"class.llvm::pointer_union_detail::PointerUnionMembers.353", ptr %10, i32 0, i32 0
  %12 = getelementptr inbounds nuw %"class.llvm::pointer_union_detail::PointerUnionMembers.354", ptr %11, i32 0, i32 0
  %13 = getelementptr inbounds nuw %"class.llvm::PointerIntPair.355", ptr %12, i32 0, i32 0
  %14 = getelementptr inbounds nuw %"struct.llvm::detail::PunnedPointer.356", ptr %13, i32 0, i32 0
  store i64 %1, ptr %14, align 8
  store ptr %0, ptr %4, align 8
  %15 = load ptr, ptr %4, align 8
  %16 = getelementptr inbounds nuw %"class.(anonymous namespace)::StmtProfiler", ptr %15, i32 0, i32 2
  %17 = load i8, ptr %16, align 8
  %18 = trunc i8 %17 to i1
  br i1 %18, label %19, label %32

19:                                               ; preds = %2
  %20 = getelementptr inbounds nuw %"class.(anonymous namespace)::StmtProfilerWithPointers", ptr %15, i32 0, i32 1
  %21 = load ptr, ptr %20, align 8
  %22 = call i64 @_ZNK5clang10ASTContext24getCanonicalTemplateNameERKNS_12TemplateNameE(ptr noundef nonnull align 8 dereferenceable(23096) %21, ptr noundef nonnull align 8 dereferenceable(8) %3)
  %23 = getelementptr inbounds nuw %"class.clang::TemplateName", ptr %5, i32 0, i32 0
  %24 = getelementptr inbounds nuw %"class.llvm::PointerUnion", ptr %23, i32 0, i32 0
  %25 = getelementptr inbounds nuw %"class.llvm::pointer_union_detail::PointerUnionMembers", ptr %24, i32 0, i32 0
  %26 = getelementptr inbounds nuw %"class.llvm::pointer_union_detail::PointerUnionMembers.351", ptr %25, i32 0, i32 0
  %27 = getelementptr inbounds nuw %"class.llvm::pointer_union_detail::PointerUnionMembers.352", ptr %26, i32 0, i32 0
  %28 = getelementptr inbounds nuw %"class.llvm::pointer_union_detail::PointerUnionMembers.353", ptr %27, i32 0, i32 0
  %29 = getelementptr inbounds nuw %"class.llvm::pointer_union_detail::PointerUnionMembers.354", ptr %28, i32 0, i32 0
  %30 = getelementptr inbounds nuw %"class.llvm::PointerIntPair.355", ptr %29, i32 0, i32 0
  %31 = getelementptr inbounds nuw %"struct.llvm::detail::PunnedPointer.356", ptr %30, i32 0, i32 0
  store i64 %22, ptr %31, align 8
  call void @llvm.memcpy.p0.p0.i64(ptr align 8 %3, ptr align 8 %5, i64 8, i1 false)
  br label %32

32:                                               ; preds = %19, %2
  %33 = getelementptr inbounds nuw %"class.(anonymous namespace)::StmtProfiler", ptr %15, i32 0, i32 1
  %34 = load ptr, ptr %33, align 8
  call void @_ZN5clang12TemplateName7ProfileERN4llvm16FoldingSetNodeIDE(ptr noundef nonnull align 8 dereferenceable(8) %3, ptr noundef nonnull align 8 dereferenceable(144) %34)
  ret void
}