; Function Attrs: mustprogress nounwind uwtable
define internal void @_ZN12_GLOBAL__N_124StmtProfilerWithPointers17VisitTemplateNameEN5clang12TemplateNameE(ptr noundef nonnull readonly align 8 captures(none) dereferenceable(32) %0, i64 %1) unnamed_addr #0 align 2 {
  %3 = alloca %"class.clang::TemplateName", align 8
  store i64 %1, ptr %3, align 8
  %4 = getelementptr inbounds nuw i8, ptr %0, i64 16
  %5 = load i8, ptr %4, align 8
  %6 = trunc i8 %5 to i1
  br i1 %6, label %7, label %11

7:                                                ; preds = %2
  %8 = getelementptr inbounds nuw i8, ptr %0, i64 24
  %9 = load ptr, ptr %8, align 8
  %10 = call i64 @_ZNK5clang10ASTContext24getCanonicalTemplateNameERKNS_12TemplateNameE(ptr noundef nonnull align 8 dereferenceable(23096) %9, ptr noundef nonnull align 8 dereferenceable(8) %3) #11
  store i64 %10, ptr %3, align 8
  br label %11

11:                                               ; preds = %7, %2
  %.0.copyload.i.i.i.i = phi i64 [ %10, %7 ], [ %1, %2 ]
  %12 = getelementptr inbounds nuw i8, ptr %0, i64 8
  %13 = load ptr, ptr %12, align 8
  call void @_ZN4llvm16FoldingSetNodeID10AddIntegerEy(ptr noundef nonnull align 8 dereferenceable(144) %13, i64 noundef %.0.copyload.i.i.i.i)
  ret void
}